; Function Attrs: nounwind uwtable
define void @_ZThn8_N8proxygen21RequestHandlerAdaptor9sendAbortEv(ptr nocapture noundef readonly %this) unnamed_addr #8 align 2 personality ptr @__gxx_personality_v0 {
entry:
  %txn_.i = getelementptr inbounds i8, ptr %this, i64 16
  %0 = load ptr, ptr %txn_.i, align 8
  %vtable.i = load ptr, ptr %0, align 8
  %vfn.i = getelementptr inbounds i8, ptr %vtable.i, i64 152
  %1 = load ptr, ptr %vfn.i, align 8
  invoke void %1(ptr noundef nonnull align 8 dereferenceable(912) %0)
          to label %_ZN8proxygen21RequestHandlerAdaptor9sendAbortEv.exit unwind label %terminate.lpad.i

terminate.lpad.i:                                 ; preds = %entry
  %2 = landingpad { ptr, i32 }
          catch ptr null
  %3 = extractvalue { ptr, i32 } %2, 0
  tail call void @__clang_call_terminate(ptr %3) #22
  unreachable

_ZN8proxygen21RequestHandlerAdaptor9sendAbortEv.exit: ; preds = %entry
  ret void
}